Certificate:
    Data:
        Version: 3 (0x2)
        Serial Number: 1 (0x1)
    Signature Algorithm: sha256WithRSAEncryption
        Issuer: C=FR, ST=Radius, L=Somewhere, O=Example Inc./emailAddress=admin@example.org, CN=Example Certificate Authority
        Validity
            Not Before: Jun 21 05:41:17 2018 GMT
            Not After : Aug 20 05:41:17 2018 GMT
        Subject: C=FR, ST=Radius, O=Example Inc., CN=Example Server Certificate/emailAddress=admin@example.org
        Subject Public Key Info:
            Public Key Algorithm: rsaEncryption
                Public-Key: (2048 bit)
                Modulus:
                    00:a3:8a:86:f9:3c:8c:32:8c:9a:7b:42:b3:7d:89:
                    b0:6f:03:e1:a7:6e:f2:08:ac:f0:74:51:eb:32:c0:
                    6a:12:f8:93:80:5b:d7:93:db:60:d3:5e:e1:33:c0:
                    86:40:f6:fc:6d:3b:d7:04:f2:82:fe:c7:4e:09:6e:
                    af:f5:03:0c:30:cc:48:c6:ae:1f:ca:99:92:b9:7d:
                    28:cf:ab:81:b5:15:ee:43:40:10:00:cb:cf:ad:8f:
                    06:a7:4e:24:c9:fe:d2:11:0c:bd:17:73:88:d9:83:
                    1e:b4:61:94:39:9f:3b:33:fd:bf:9c:e3:bb:b6:25:
                    ce:f0:5c:68:36:b1:cc:1b:2b:4d:03:51:d4:3d:c7:
                    c9:cf:0d:5e:01:f5:86:f7:aa:bd:dc:b7:9b:da:9d:
                    3c:87:df:8c:d9:75:60:4b:c5:22:51:22:b6:f9:25:
                    f4:b6:83:9d:a2:30:fc:8f:ad:1c:ea:6d:f9:99:d8:
                    45:a2:57:98:3b:e7:42:f7:24:d9:4d:c7:07:4e:6c:
                    b8:18:af:4e:63:76:f3:dd:01:df:b3:e1:f7:1e:75:
                    65:4a:54:28:a5:71:e8:ea:8f:48:ab:60:10:7f:6c:
                    41:76:02:9c:70:bd:82:2b:2c:ff:26:6c:38:fa:56:
                    74:87:d0:91:32:f0:0f:b3:8a:2d:cb:82:93:10:8f:
                    5b:b3
                Exponent: 65537 (0x10001)
        X509v3 extensions:
            X509v3 Extended Key Usage: 
                TLS Web Server Authentication
            X509v3 CRL Distribution Points: 

                Full Name:
                  URI:http://www.example.com/example_ca.crl

    Signature Algorithm: sha256WithRSAEncryption
         50:33:c3:66:98:2a:0a:5b:c0:9f:3b:76:e3:1c:e6:a4:38:6e:
         04:85:33:38:48:3f:2e:81:be:7b:2d:7b:fb:c4:29:21:fb:41:
         58:f5:b2:89:1e:50:b7:4f:89:4d:8a:48:51:88:b3:65:7b:cf:
         28:e1:d1:a7:73:16:8b:21:19:95:b6:2c:70:de:9a:da:b4:77:
         fa:a8:36:6b:ca:82:be:2e:75:1b:7a:62:e3:0b:00:d2:c8:e5:
         b9:6a:a6:8c:35:43:17:13:a4:de:4c:9c:6a:82:74:f6:33:5d:
         e2:00:2a:be:9b:d5:7f:b3:5f:00:07:19:dd:ff:25:c7:f1:ad:
         d1:78:36:c8:7a:d4:7d:79:46:ca:30:07:5a:b9:a5:d3:04:f1:
         b7:15:77:44:4e:1c:61:1b:2d:f4:d1:5f:a5:3c:3a:d9:75:69:
         34:b1:12:66:91:3d:05:10:c4:d8:3d:33:93:a2:20:ab:8d:34:
         99:00:5b:5c:a1:a1:76:4c:f4:a7:45:69:fd:48:1c:05:42:ef:
         86:37:13:87:3f:ba:fd:73:4b:f0:6c:76:4b:e2:ce:46:fa:4d:
         48:c5:81:21:d9:03:e3:de:f7:2f:89:d2:42:41:2d:3a:bd:9c:
         15:99:eb:53:4a:cc:0b:c7:00:c8:b8:93:25:f0:97:7b:f8:e1:
         7b:79:dd:6a
-----BEGIN CERTIFICATE-----
MIID2jCCAsKgAwIBAgIBATANBgkqhkiG9w0BAQsFADCBkzELMAkGA1UEBhMCRlIx
DzANBgNVBAgMBlJhZGl1czESMBAGA1UEBwwJU29tZXdoZXJlMRUwEwYDVQQKDAxF
eGFtcGxlIEluYy4xIDAeBgkqhkiG9w0BCQEWEWFkbWluQGV4YW1wbGUub3JnMSYw
JAYDVQQDDB1FeGFtcGxlIENlcnRpZmljYXRlIEF1dGhvcml0eTAeFw0xODA2MjEw
NTQxMTdaFw0xODA4MjAwNTQxMTdaMHwxCzAJBgNVBAYTAkZSMQ8wDQYDVQQIDAZS
YWRpdXMxFTATBgNVBAoMDEV4YW1wbGUgSW5jLjEjMCEGA1UEAwwaRXhhbXBsZSBT
ZXJ2ZXIgQ2VydGlmaWNhdGUxIDAeBgkqhkiG9w0BCQEWEWFkbWluQGV4YW1wbGUu
b3JnMIIBIjANBgkqhkiG9w0BAQEFAAOCAQ8AMIIBCgKCAQEAo4qG+TyMMoyae0Kz
fYmwbwPhp27yCKzwdFHrMsBqEviTgFvXk9tg017hM8CGQPb8bTvXBPKC/sdOCW6v
9QMMMMxIxq4fypmSuX0oz6uBtRXuQ0AQAMvPrY8Gp04kyf7SEQy9F3OI2YMetGGU
OZ87M/2/nOO7tiXO8FxoNrHMGytNA1HUPcfJzw1eAfWG96q93Leb2p08h9+M2XVg
S8UiUSK2+SX0toOdojD8j60c6m35mdhFoleYO+dC9yTZTccHTmy4GK9OY3bz3QHf
s+H3HnVlSlQopXHo6o9Iq2AQf2xBdgKccL2CKyz/Jmw4+lZ0h9CRMvAPs4oty4KT
EI9bswIDAQABo08wTTATBgNVHSUEDDAKBggrBgEFBQcDATA2BgNVHR8ELzAtMCug
KaAnhiVodHRwOi8vd3d3LmV4YW1wbGUuY29tL2V4YW1wbGVfY2EuY3JsMA0GCSqG
SIb3DQEBCwUAA4IBAQBQM8NmmCoKW8CfO3bjHOakOG4EhTM4SD8ugb57LXv7xCkh
+0FY9bKJHlC3T4lNikhRiLNle88o4dGncxaLIRmVtixw3pratHf6qDZryoK+LnUb
emLjCwDSyOW5aqaMNUMXE6TeTJxqgnT2M13iACq+m9V/s18ABxnd/yXH8a3ReDbI
etR9eUbKMAdauaXTBPG3FXdEThxhGy300V+lPDrZdWk0sRJmkT0FEMTYPTOToiCr
jTSZAFtcoaF2TPSnRWn9SBwFQu+GNxOHP7r9c0vwbHZL4s5G+k1IxYEh2QPj3vcv
idJCQS06vZwVmetTSswLxwDIuJMl8Jd7+OF7ed1q
-----END CERTIFICATE-----
