Certificate:
    Data:
        Version: 3 (0x2)
        Serial Number: 2 (0x2)
    Signature Algorithm: sha256WithRSAEncryption
        Issuer: C=FR, ST=Radius, L=Somewhere, O=Example Inc./emailAddress=admin@example.org, CN=Example Certificate Authority
        Validity
            Not Before: Jun 21 05:41:18 2018 GMT
            Not After : Aug 20 05:41:18 2018 GMT
        Subject: C=FR, ST=Radius, O=Example Inc., CN=user@example.org/emailAddress=user@example.org
        Subject Public Key Info:
            Public Key Algorithm: rsaEncryption
                Public-Key: (2048 bit)
                Modulus:
                    00:9b:cb:60:3c:05:45:84:84:66:cf:a6:ec:19:f4:
                    97:57:1f:c3:8d:d8:6d:49:78:86:22:0b:d7:60:ef:
                    dc:86:e8:ed:da:a6:e6:7f:90:9d:99:ed:37:c0:c2:
                    9a:c6:93:1e:9a:ba:e2:af:84:c0:4a:ef:29:79:72:
                    bb:3f:0f:10:81:1b:6f:fa:49:8b:8f:52:b8:79:01:
                    9a:c3:46:2f:48:b1:a1:90:93:0c:d9:63:2a:7f:58:
                    c6:52:cc:d6:5f:2e:cd:1f:cc:6b:e8:6b:a1:6d:cb:
                    9e:bf:71:1b:61:6a:2f:56:c0:64:ec:e7:b7:2d:f2:
                    08:69:5f:0d:b7:76:76:ca:76:0a:e3:20:7e:8e:2f:
                    2f:80:42:35:fe:b8:68:d0:83:ab:08:3d:1b:fa:fa:
                    01:8b:eb:ab:7d:e9:7a:02:79:7f:fc:30:09:b6:8f:
                    4a:57:7c:7d:36:49:25:4a:e7:1b:9b:5f:2f:23:cc:
                    c3:0f:1d:22:3e:c8:2c:c9:dd:df:68:39:ff:6e:76:
                    38:9f:72:ae:71:1a:e2:31:67:66:fa:7f:50:2a:34:
                    a0:f5:05:b4:aa:da:0c:e6:6f:ee:7d:9d:0d:de:03:
                    a7:19:02:41:33:0e:fc:87:08:7d:01:c9:58:19:f2:
                    fe:ce:a0:45:7d:48:20:48:d8:3d:63:54:e4:53:67:
                    9f:11
                Exponent: 65537 (0x10001)
        X509v3 extensions:
            X509v3 Extended Key Usage: 
                TLS Web Client Authentication
            X509v3 CRL Distribution Points: 

                Full Name:
                  URI:http://www.example.com/example_ca.crl

    Signature Algorithm: sha256WithRSAEncryption
         c9:00:24:14:f6:c3:26:15:7f:14:7b:5d:8d:fc:6e:df:3e:2f:
         6c:03:b7:1e:77:d4:12:7e:66:37:63:98:5f:1f:78:67:c8:4a:
         c9:8a:9e:90:32:e4:02:f6:da:6b:47:09:7c:23:0e:95:86:cc:
         1e:a3:5b:c4:30:49:4a:a4:22:8f:5f:99:2d:ad:84:74:45:88:
         fb:6c:41:16:04:f0:f5:b7:18:2d:c3:7c:4a:b1:c2:13:90:92:
         c4:14:60:87:64:68:37:bf:4f:6c:11:69:58:61:f4:a2:d3:f3:
         b0:72:bc:67:bc:50:d3:f1:9b:2d:75:20:96:78:53:25:56:67:
         02:f8:37:fa:5b:4d:f8:22:74:6b:94:81:ca:d3:36:74:28:c2:
         d1:da:df:82:c9:4e:9e:60:ff:3c:8f:b1:e5:80:1b:cc:5a:9a:
         fe:57:58:95:65:2d:b7:ba:21:75:b4:a4:90:f3:5a:5d:4d:ac:
         85:12:3e:fb:3f:c9:c3:83:be:c3:e6:a7:35:60:33:c4:19:b4:
         bd:a1:6c:5b:f2:ac:74:b4:0c:4f:93:b1:70:85:ef:ad:38:ff:
         d0:11:3f:89:78:4b:14:5c:eb:3b:a4:32:b8:ed:f1:97:0f:1e:
         88:4f:db:d6:b3:be:d5:d4:84:89:5c:b8:4c:22:8a:e7:a2:f4:
         8a:f5:bc:00
-----BEGIN CERTIFICATE-----
MIIDzzCCAregAwIBAgIBAjANBgkqhkiG9w0BAQsFADCBkzELMAkGA1UEBhMCRlIx
DzANBgNVBAgMBlJhZGl1czESMBAGA1UEBwwJU29tZXdoZXJlMRUwEwYDVQQKDAxF
eGFtcGxlIEluYy4xIDAeBgkqhkiG9w0BCQEWEWFkbWluQGV4YW1wbGUub3JnMSYw
JAYDVQQDDB1FeGFtcGxlIENlcnRpZmljYXRlIEF1dGhvcml0eTAeFw0xODA2MjEw
NTQxMThaFw0xODA4MjAwNTQxMThaMHExCzAJBgNVBAYTAkZSMQ8wDQYDVQQIDAZS
YWRpdXMxFTATBgNVBAoMDEV4YW1wbGUgSW5jLjEZMBcGA1UEAwwQdXNlckBleGFt
cGxlLm9yZzEfMB0GCSqGSIb3DQEJARYQdXNlckBleGFtcGxlLm9yZzCCASIwDQYJ
KoZIhvcNAQEBBQADggEPADCCAQoCggEBAJvLYDwFRYSEZs+m7Bn0l1cfw43YbUl4
hiIL12Dv3Ibo7dqm5n+QnZntN8DCmsaTHpq64q+EwErvKXlyuz8PEIEbb/pJi49S
uHkBmsNGL0ixoZCTDNljKn9YxlLM1l8uzR/Ma+hroW3Lnr9xG2FqL1bAZOznty3y
CGlfDbd2dsp2CuMgfo4vL4BCNf64aNCDqwg9G/r6AYvrq33pegJ5f/wwCbaPSld8
fTZJJUrnG5tfLyPMww8dIj7ILMnd32g5/252OJ9yrnEa4jFnZvp/UCo0oPUFtKra
DOZv7n2dDd4DpxkCQTMO/IcIfQHJWBny/s6gRX1IIEjYPWNU5FNnnxECAwEAAaNP
ME0wEwYDVR0lBAwwCgYIKwYBBQUHAwIwNgYDVR0fBC8wLTAroCmgJ4YlaHR0cDov
L3d3dy5leGFtcGxlLmNvbS9leGFtcGxlX2NhLmNybDANBgkqhkiG9w0BAQsFAAOC
AQEAyQAkFPbDJhV/FHtdjfxu3z4vbAO3HnfUEn5mN2OYXx94Z8hKyYqekDLkAvba
a0cJfCMOlYbMHqNbxDBJSqQij1+ZLa2EdEWI+2xBFgTw9bcYLcN8SrHCE5CSxBRg
h2RoN79PbBFpWGH0otPzsHK8Z7xQ0/GbLXUglnhTJVZnAvg3+ltN+CJ0a5SBytM2
dCjC0drfgslOnmD/PI+x5YAbzFqa/ldYlWUtt7ohdbSkkPNaXU2shRI++z/Jw4O+
w+anNWAzxBm0vaFsW/KsdLQMT5OxcIXvrTj/0BE/iXhLFFzrO6QyuO3xlw8eiE/b
1rO+1dSEiVy4TCKK56L0ivW8AA==
-----END CERTIFICATE-----
